target datalayout = "e-m:e-p270:32:32-p271:32:32-p272:64:64-i64:64-i128:128-f80:128-n8:16:32:64-S128"
target triple = "x86_64-pc-linux-gnu"

%struct.sockaddr = type { i16, [14 x i8] }
%struct.sockaddr_in = type { i16, i16, %struct.in_addr, [8 x i8] }
%struct.in_addr = type { i32 }
%struct.sockaddr_in6 = type { i16, i16, i32, %struct.in6_addr, i32 }
%struct.in6_addr = type { %union.anon }
%union.anon = type { [4 x i32] }

@.str = private unnamed_addr constant [33 x i8] c"../openssl/crypto/bio/bio_addr.c\00", align 1
@__func__.addr_strings = private unnamed_addr constant [13 x i8] c"addr_strings\00", align 1
@.str.6 = private unnamed_addr constant [22 x i8] c"calling getnameinfo()\00", align 1
@.str.7 = private unnamed_addr constant [3 x i8] c"%d\00", align 1

; Function Attrs: inlinehint nounwind uwtable
define internal zeroext i16 @__bswap_16(i16 noundef zeroext %0) #8 {
  %2 = alloca i16, align 2
  store i16 %0, ptr %2, align 2, !tbaa !19
  %3 = load i16, ptr %2, align 2, !tbaa !19
  %4 = zext i16 %3 to i32
  %5 = ashr i32 %4, 8
  %6 = and i32 %5, 255
  %7 = load i16, ptr %2, align 2, !tbaa !19
  %8 = zext i16 %7 to i32
  %9 = and i32 %8, 255
  %10 = shl i32 %9, 8
  %11 = or i32 %6, %10
  %12 = trunc i32 %11 to i16
  ret i16 %12
}

; Function Attrs: nounwind uwtable
define zeroext i16 @BIO_ADDR_rawport(ptr noundef %0) #0 {
  %2 = alloca i16, align 2
  %3 = alloca ptr, align 8
  store ptr %0, ptr %3, align 8, !tbaa !3
  %4 = load ptr, ptr %3, align 8, !tbaa !3
  %5 = getelementptr inbounds nuw %struct.sockaddr, ptr %4, i32 0, i32 0
  %6 = load i16, ptr %5, align 4, !tbaa !8
  %7 = zext i16 %6 to i32
  %8 = icmp eq i32 %7, 2
  br i1 %8, label %9, label %13

9:                                                ; preds = %1
  %10 = load ptr, ptr %3, align 8, !tbaa !3
  %11 = getelementptr inbounds nuw %struct.sockaddr_in, ptr %10, i32 0, i32 1
  %12 = load i16, ptr %11, align 2, !tbaa !8
  store i16 %12, ptr %2, align 2
  br label %24

13:                                               ; preds = %1
  %14 = load ptr, ptr %3, align 8, !tbaa !3
  %15 = getelementptr inbounds nuw %struct.sockaddr, ptr %14, i32 0, i32 0
  %16 = load i16, ptr %15, align 4, !tbaa !8
  %17 = zext i16 %16 to i32
  %18 = icmp eq i32 %17, 10
  br i1 %18, label %19, label %23

19:                                               ; preds = %13
  %20 = load ptr, ptr %3, align 8, !tbaa !3
  %21 = getelementptr inbounds nuw %struct.sockaddr_in6, ptr %20, i32 0, i32 1
  %22 = load i16, ptr %21, align 2, !tbaa !8
  store i16 %22, ptr %2, align 2
  br label %24

23:                                               ; preds = %13
  store i16 0, ptr %2, align 2
  br label %24

24:                                               ; preds = %23, %19, %9
  %25 = load i16, ptr %2, align 2
  ret i16 %25
}

; Function Attrs: nounwind uwtable
define i32 @BIO_ADDR_sockaddr_size(ptr noundef %0) #0 {
  %2 = alloca i32, align 4
  %3 = alloca ptr, align 8
  store ptr %0, ptr %3, align 8, !tbaa !3
  %4 = load ptr, ptr %3, align 8, !tbaa !3
  %5 = getelementptr inbounds nuw %struct.sockaddr, ptr %4, i32 0, i32 0
  %6 = load i16, ptr %5, align 4, !tbaa !8
  %7 = zext i16 %6 to i32
  %8 = icmp eq i32 %7, 2
  br i1 %8, label %9, label %10

9:                                                ; preds = %1
  store i32 16, ptr %2, align 4
  br label %25

10:                                               ; preds = %1
  %11 = load ptr, ptr %3, align 8, !tbaa !3
  %12 = getelementptr inbounds nuw %struct.sockaddr, ptr %11, i32 0, i32 0
  %13 = load i16, ptr %12, align 4, !tbaa !8
  %14 = zext i16 %13 to i32
  %15 = icmp eq i32 %14, 10
  br i1 %15, label %16, label %17

16:                                               ; preds = %10
  store i32 28, ptr %2, align 4
  br label %25

17:                                               ; preds = %10
  %18 = load ptr, ptr %3, align 8, !tbaa !3
  %19 = getelementptr inbounds nuw %struct.sockaddr, ptr %18, i32 0, i32 0
  %20 = load i16, ptr %19, align 4, !tbaa !8
  %21 = zext i16 %20 to i32
  %22 = icmp eq i32 %21, 1
  br i1 %22, label %23, label %24

23:                                               ; preds = %17
  store i32 110, ptr %2, align 4
  br label %25

24:                                               ; preds = %17
  store i32 112, ptr %2, align 4
  br label %25

25:                                               ; preds = %24, %23, %16, %9
  %26 = load i32, ptr %2, align 4
  ret i32 %26
}

; Function Attrs: nounwind uwtable
define ptr @BIO_ADDR_sockaddr(ptr noundef %0) #0 {
  %2 = alloca ptr, align 8
  store ptr %0, ptr %2, align 8, !tbaa !3
  %3 = load ptr, ptr %2, align 8, !tbaa !3
  ret ptr %3
}

; Function Attrs: nounwind uwtable
define internal i32 @addr_strings(ptr noundef %0, i32 noundef %1, ptr noundef %2, ptr noundef %3) #0 {
  %5 = alloca i32, align 4
  %6 = alloca ptr, align 8
  %7 = alloca i32, align 4
  %8 = alloca ptr, align 8
  %9 = alloca ptr, align 8
  %10 = alloca i32, align 4
  %11 = alloca [1025 x i8], align 16
  %12 = alloca [32 x i8], align 16
  %13 = alloca i32, align 4
  %14 = alloca i32, align 4
  store ptr %0, ptr %6, align 8, !tbaa !3
  store i32 %1, ptr %7, align 4, !tbaa !14
  store ptr %2, ptr %8, align 8, !tbaa !26
  store ptr %3, ptr %9, align 8, !tbaa !26
  %15 = call i32 @BIO_sock_init()
  %16 = icmp ne i32 %15, 1
  br i1 %16, label %17, label %18

17:                                               ; preds = %4
  store i32 0, ptr %5, align 4
  br label %103

18:                                               ; preds = %4
  call void @llvm.lifetime.start.p0(i64 4, ptr %10) #9
  store i32 0, ptr %10, align 4, !tbaa !14
  call void @llvm.lifetime.start.p0(i64 1025, ptr %11) #9
  call void @llvm.memset.p0.i64(ptr align 16 %11, i8 0, i64 1025, i1 false)
  call void @llvm.lifetime.start.p0(i64 32, ptr %12) #9
  call void @llvm.memset.p0.i64(ptr align 16 %12, i8 0, i64 32, i1 false)
  call void @llvm.lifetime.start.p0(i64 4, ptr %13) #9
  store i32 0, ptr %13, align 4, !tbaa !14
  %19 = load i32, ptr %7, align 4, !tbaa !14
  %20 = icmp ne i32 %19, 0
  br i1 %20, label %21, label %24

21:                                               ; preds = %18
  %22 = load i32, ptr %13, align 4, !tbaa !14
  %23 = or i32 %22, 3
  store i32 %23, ptr %13, align 4, !tbaa !14
  br label %24

24:                                               ; preds = %21, %18
  %25 = load ptr, ptr %6, align 8, !tbaa !3
  %26 = call ptr @BIO_ADDR_sockaddr(ptr noundef %25)
  %27 = load ptr, ptr %6, align 8, !tbaa !3
  %28 = call i32 @BIO_ADDR_sockaddr_size(ptr noundef %27)
  %29 = getelementptr inbounds [1025 x i8], ptr %11, i64 0, i64 0
  %30 = getelementptr inbounds [32 x i8], ptr %12, i64 0, i64 0
  %31 = load i32, ptr %13, align 4, !tbaa !14
  %32 = call i32 @getnameinfo(ptr noundef %26, i32 noundef %28, ptr noundef %29, i32 noundef 1025, ptr noundef %30, i32 noundef 32, i32 noundef %31)
  store i32 %32, ptr %10, align 4, !tbaa !14
  %33 = icmp ne i32 %32, 0
  br i1 %33, label %34, label %44

34:                                               ; preds = %24
  %35 = load i32, ptr %10, align 4, !tbaa !14
  %36 = icmp eq i32 %35, -11
  br i1 %36, label %37, label %40

37:                                               ; preds = %34
  call void @ERR_new()
  call void @ERR_set_debug(ptr noundef @.str, i32 noundef 249, ptr noundef @__func__.addr_strings)
  %38 = call ptr @__errno_location() #11
  %39 = load i32, ptr %38, align 4, !tbaa !14
  call void (i32, i32, ptr, ...) @ERR_set_error(i32 noundef 2, i32 noundef %39, ptr noundef @.str.6)
  br label %43

40:                                               ; preds = %34
  call void @ERR_new()
  call void @ERR_set_debug(ptr noundef @.str, i32 noundef 254, ptr noundef @__func__.addr_strings)
  %41 = load i32, ptr %10, align 4, !tbaa !14
  %42 = call ptr @gai_strerror(i32 noundef %41) #9
  call void (i32, i32, ptr, ...) @ERR_set_error(i32 noundef 32, i32 noundef 524290, ptr noundef %42)
  br label %43

43:                                               ; preds = %40, %37
  store i32 0, ptr %5, align 4
  store i32 1, ptr %14, align 4
  br label %71

44:                                               ; preds = %24
  %45 = getelementptr inbounds [32 x i8], ptr %12, i64 0, i64 0
  %46 = load i8, ptr %45, align 16, !tbaa !8
  %47 = sext i8 %46 to i32
  %48 = icmp eq i32 %47, 0
  br i1 %48, label %49, label %56

49:                                               ; preds = %44
  %50 = getelementptr inbounds [32 x i8], ptr %12, i64 0, i64 0
  %51 = load ptr, ptr %6, align 8, !tbaa !3
  %52 = call zeroext i16 @BIO_ADDR_rawport(ptr noundef %51)
  %53 = call zeroext i16 @__bswap_16(i16 noundef zeroext %52)
  %54 = zext i16 %53 to i32
  %55 = call i32 (ptr, i64, ptr, ...) @BIO_snprintf(ptr noundef %50, i64 noundef 32, ptr noundef @.str.7, i32 noundef %54)
  br label %56

56:                                               ; preds = %49, %44
  %57 = load ptr, ptr %8, align 8, !tbaa !26
  %58 = icmp ne ptr %57, null
  br i1 %58, label %59, label %63

59:                                               ; preds = %56
  %60 = getelementptr inbounds [1025 x i8], ptr %11, i64 0, i64 0
  %61 = call noalias ptr @CRYPTO_strdup(ptr noundef %60, ptr noundef @.str, i32 noundef 271)
  %62 = load ptr, ptr %8, align 8, !tbaa !26
  store ptr %61, ptr %62, align 8, !tbaa !24
  br label %63

63:                                               ; preds = %59, %56
  %64 = load ptr, ptr %9, align 8, !tbaa !26
  %65 = icmp ne ptr %64, null
  br i1 %65, label %66, label %70

66:                                               ; preds = %63
  %67 = getelementptr inbounds [32 x i8], ptr %12, i64 0, i64 0
  %68 = call noalias ptr @CRYPTO_strdup(ptr noundef %67, ptr noundef @.str, i32 noundef 273)
  %69 = load ptr, ptr %9, align 8, !tbaa !26
  store ptr %68, ptr %69, align 8, !tbaa !24
  br label %70

70:                                               ; preds = %66, %63
  store i32 0, ptr %14, align 4
  br label %71

71:                                               ; preds = %70, %43
  call void @llvm.lifetime.end.p0(i64 4, ptr %13) #9
  call void @llvm.lifetime.end.p0(i64 32, ptr %12) #9
  call void @llvm.lifetime.end.p0(i64 1025, ptr %11) #9
  call void @llvm.lifetime.end.p0(i64 4, ptr %10) #9
  %72 = load i32, ptr %14, align 4
  switch i32 %72, label %105 [
    i32 0, label %73
    i32 1, label %103
  ]

73:                                               ; preds = %71
  %74 = load ptr, ptr %8, align 8, !tbaa !26
  %75 = icmp ne ptr %74, null
  br i1 %75, label %76, label %80

76:                                               ; preds = %73
  %77 = load ptr, ptr %8, align 8, !tbaa !26
  %78 = load ptr, ptr %77, align 8, !tbaa !24
  %79 = icmp eq ptr %78, null
  br i1 %79, label %87, label %80

80:                                               ; preds = %76, %73
  %81 = load ptr, ptr %9, align 8, !tbaa !26
  %82 = icmp ne ptr %81, null
  br i1 %82, label %83, label %102

83:                                               ; preds = %80
  %84 = load ptr, ptr %9, align 8, !tbaa !26
  %85 = load ptr, ptr %84, align 8, !tbaa !24
  %86 = icmp eq ptr %85, null
  br i1 %86, label %87, label %102

87:                                               ; preds = %83, %76
  %88 = load ptr, ptr %8, align 8, !tbaa !26
  %89 = icmp ne ptr %88, null
  br i1 %89, label %90, label %94

90:                                               ; preds = %87
  %91 = load ptr, ptr %8, align 8, !tbaa !26
  %92 = load ptr, ptr %91, align 8, !tbaa !24
  call void @CRYPTO_free(ptr noundef %92, ptr noundef @.str, i32 noundef 288)
  %93 = load ptr, ptr %8, align 8, !tbaa !26
  store ptr null, ptr %93, align 8, !tbaa !24
  br label %94

94:                                               ; preds = %90, %87
  %95 = load ptr, ptr %9, align 8, !tbaa !26
  %96 = icmp ne ptr %95, null
  br i1 %96, label %97, label %101

97:                                               ; preds = %94
  %98 = load ptr, ptr %9, align 8, !tbaa !26
  %99 = load ptr, ptr %98, align 8, !tbaa !24
  call void @CRYPTO_free(ptr noundef %99, ptr noundef @.str, i32 noundef 292)
  %100 = load ptr, ptr %9, align 8, !tbaa !26
  store ptr null, ptr %100, align 8, !tbaa !24
  br label %101

101:                                              ; preds = %97, %94
  store i32 0, ptr %5, align 4
  br label %103

102:                                              ; preds = %83, %80
  store i32 1, ptr %5, align 4
  br label %103

103:                                              ; preds = %102, %101, %71, %17
  %104 = load i32, ptr %5, align 4
  ret i32 %104

105:                                              ; preds = %71
  unreachable
}